target datalayout = "e-m:e-p270:32:32-p271:32:32-p272:64:64-i64:64-i128:128-f80:128-n8:16:32:64-S128"
target triple = "x86_64-pc-linux-gnu"

%class.DCmdWithParser = type { %class.DCmd.base, %class.DCmdParser }
%class.DCmd.base = type <{ ptr, ptr, i8 }>
%class.DCmdParser = type { ptr, ptr }
%class.DCmdArgument = type { %class.GenDCmdArgument.base, i8, [4 x i8] }
%class.GenDCmdArgument.base = type <{ ptr, ptr, ptr, ptr, ptr, ptr, i8, i8, i8 }>
%class.DCmd = type <{ ptr, ptr, i8, [7 x i8] }>
%class.DCmdArgument.100 = type { %class.GenDCmdArgument.base, i64 }
%class.ClassHistogramDCmd = type { %class.DCmdWithParser, %class.DCmdArgument, %class.DCmdArgument.100 }
%class.VM_GC_HeapInspection = type { %class.VM_GC_Operation.base, ptr, i8, i32 }
%class.VM_GC_Operation.base = type <{ %class.VM_GC_Sync_Operation, i32, i32, i8, i8, [2 x i8], i32, i8 }>
%class.VM_GC_Sync_Operation = type { %class.VM_Operation }
%class.VM_Operation = type { ptr, ptr }
%class.VM_GC_Operation = type <{ %class.VM_GC_Sync_Operation, i32, i32, i8, i8, [2 x i8], i32, i8, [7 x i8] }>

@.str.63 = private unnamed_addr constant [47 x i8] c"Parallel thread number out of range (>=0): %ld\00", align 1
@_ZN2os31_initial_active_processor_countE = external global i32, align 4
@_ZTV20VM_GC_HeapInspection = external unnamed_addr constant { [13 x ptr] }, align 8
@_ZTV15VM_GC_Operation = external unnamed_addr constant { [13 x ptr] }, align 8
@_ZTV20VM_GC_Sync_Operation = external unnamed_addr constant { [12 x ptr] }, align 8
@_ZTV12VM_Operation = external unnamed_addr constant { [12 x ptr] }, align 8

; Function Attrs: mustprogress nounwind uwtable
define linkonce_odr hidden void @_ZN12VM_OperationC2Ev(ptr noundef nonnull align 8 dereferenceable(16) %0) unnamed_addr #1 comdat align 2 {
  %2 = alloca ptr, align 8
  store ptr %0, ptr %2, align 8
  %3 = load ptr, ptr %2, align 8
  store ptr getelementptr inbounds inrange(-16, 80) ({ [12 x ptr] }, ptr @_ZTV12VM_Operation, i32 0, i32 0, i32 2), ptr %3, align 8
  %4 = getelementptr inbounds %class.VM_Operation, ptr %3, i32 0, i32 1
  store ptr null, ptr %4, align 8
  ret void
}

; Function Attrs: mustprogress nounwind uwtable
define linkonce_odr hidden void @_ZN20VM_GC_Sync_OperationC2Ev(ptr noundef nonnull align 8 dereferenceable(16) %0) unnamed_addr #1 comdat align 2 {
  %2 = alloca ptr, align 8
  store ptr %0, ptr %2, align 8
  %3 = load ptr, ptr %2, align 8
  call void @_ZN12VM_OperationC2Ev(ptr noundef nonnull align 8 dereferenceable(16) %3)
  store ptr getelementptr inbounds inrange(-16, 80) ({ [12 x ptr] }, ptr @_ZTV20VM_GC_Sync_Operation, i32 0, i32 0, i32 2), ptr %3, align 8
  ret void
}

; Function Attrs: mustprogress nounwind uwtable
define linkonce_odr hidden void @_ZN15VM_GC_OperationC2EjN7GCCause5CauseEjb(ptr noundef nonnull align 8 dereferenceable(33) %0, i32 noundef %1, i32 noundef %2, i32 noundef %3, i1 noundef zeroext %4) unnamed_addr #1 comdat align 2 {
  %6 = alloca ptr, align 8
  %7 = alloca i32, align 4
  %8 = alloca i32, align 4
  %9 = alloca i32, align 4
  %10 = alloca i8, align 1
  store ptr %0, ptr %6, align 8
  store i32 %1, ptr %7, align 4
  store i32 %2, ptr %8, align 4
  store i32 %3, ptr %9, align 4
  %11 = zext i1 %4 to i8
  store i8 %11, ptr %10, align 1
  %12 = load ptr, ptr %6, align 8
  call void @_ZN20VM_GC_Sync_OperationC2Ev(ptr noundef nonnull align 8 dereferenceable(16) %12)
  store ptr getelementptr inbounds inrange(-16, 88) ({ [13 x ptr] }, ptr @_ZTV15VM_GC_Operation, i32 0, i32 0, i32 2), ptr %12, align 8
  %13 = load i8, ptr %10, align 1
  %14 = trunc i8 %13 to i1
  %15 = getelementptr inbounds %class.VM_GC_Operation, ptr %12, i32 0, i32 3
  %16 = zext i1 %14 to i8
  store i8 %16, ptr %15, align 8
  %17 = getelementptr inbounds %class.VM_GC_Operation, ptr %12, i32 0, i32 4
  store i8 0, ptr %17, align 1
  %18 = load i32, ptr %7, align 4
  %19 = getelementptr inbounds %class.VM_GC_Operation, ptr %12, i32 0, i32 1
  store i32 %18, ptr %19, align 8
  %20 = load i32, ptr %8, align 4
  %21 = getelementptr inbounds %class.VM_GC_Operation, ptr %12, i32 0, i32 6
  store i32 %20, ptr %21, align 4
  %22 = getelementptr inbounds %class.VM_GC_Operation, ptr %12, i32 0, i32 7
  store i8 0, ptr %22, align 8
  %23 = load i32, ptr %9, align 4
  %24 = getelementptr inbounds %class.VM_GC_Operation, ptr %12, i32 0, i32 2
  store i32 %23, ptr %24, align 4
  ret void
}

; Function Attrs: mustprogress nounwind uwtable
define linkonce_odr hidden void @_ZN20VM_GC_HeapInspectionD2Ev(ptr noundef nonnull align 8 dereferenceable(56) %0) unnamed_addr #1 comdat align 2 {
  %2 = alloca ptr, align 8
  store ptr %0, ptr %2, align 8
  %3 = load ptr, ptr %2, align 8
  call void @_ZN15VM_GC_OperationD2Ev(ptr noundef nonnull align 8 dereferenceable(33) %3) #11
  ret void
}

; Function Attrs: mustprogress nounwind uwtable
define linkonce_odr hidden void @_ZN20VM_GC_HeapInspectionC2EP12outputStreambj(ptr noundef nonnull align 8 dereferenceable(56) %0, ptr noundef %1, i1 noundef zeroext %2, i32 noundef %3) unnamed_addr #1 comdat align 2 {
  %5 = alloca ptr, align 8
  %6 = alloca ptr, align 8
  %7 = alloca i8, align 1
  %8 = alloca i32, align 4
  store ptr %0, ptr %5, align 8
  store ptr %1, ptr %6, align 8
  %9 = zext i1 %2 to i8
  store i8 %9, ptr %7, align 1
  store i32 %3, ptr %8, align 4
  %10 = load ptr, ptr %5, align 8
  %11 = load i8, ptr %7, align 1
  %12 = trunc i8 %11 to i1
  call void @_ZN15VM_GC_OperationC2EjN7GCCause5CauseEjb(ptr noundef nonnull align 8 dereferenceable(33) %10, i32 noundef 0, i32 noundef 6, i32 noundef 0, i1 noundef zeroext %12)
  store ptr getelementptr inbounds inrange(-16, 88) ({ [13 x ptr] }, ptr @_ZTV20VM_GC_HeapInspection, i32 0, i32 0, i32 2), ptr %10, align 8
  %13 = getelementptr inbounds %class.VM_GC_HeapInspection, ptr %10, i32 0, i32 1
  %14 = load ptr, ptr %6, align 8
  store ptr %14, ptr %13, align 8
  %15 = getelementptr inbounds %class.VM_GC_HeapInspection, ptr %10, i32 0, i32 2
  %16 = load i8, ptr %7, align 1
  %17 = trunc i8 %16 to i1
  %18 = zext i1 %17 to i8
  store i8 %18, ptr %15, align 8
  %19 = getelementptr inbounds %class.VM_GC_HeapInspection, ptr %10, i32 0, i32 3
  %20 = load i32, ptr %8, align 4
  store i32 %20, ptr %19, align 4
  ret void
}

; Function Attrs: mustprogress nounwind uwtable
define linkonce_odr hidden noundef zeroext i1 @_ZNK12DCmdArgumentIbE5valueEv(ptr noundef nonnull align 8 dereferenceable(52) %0) #1 comdat align 2 {
  %2 = alloca ptr, align 8
  store ptr %0, ptr %2, align 8
  %3 = load ptr, ptr %2, align 8
  %4 = getelementptr inbounds %class.DCmdArgument, ptr %3, i32 0, i32 1
  %5 = load i8, ptr %4, align 1
  %6 = trunc i8 %5 to i1
  ret i1 %6
}

; Function Attrs: mustprogress nounwind uwtable
define linkonce_odr hidden noundef i32 @_Z4MAX2IjET_S0_S0_(i32 noundef %0, i32 noundef %1) #1 comdat {
  %3 = alloca i32, align 4
  %4 = alloca i32, align 4
  store i32 %0, ptr %3, align 4
  store i32 %1, ptr %4, align 4
  %5 = load i32, ptr %3, align 4
  %6 = load i32, ptr %4, align 4
  %7 = icmp ugt i32 %5, %6
  br i1 %7, label %8, label %10

8:                                                ; preds = %2
  %9 = load i32, ptr %3, align 4
  br label %12

10:                                               ; preds = %2
  %11 = load i32, ptr %4, align 4
  br label %12

12:                                               ; preds = %10, %8
  %13 = phi i32 [ %9, %8 ], [ %11, %10 ]
  ret i32 %13
}

; Function Attrs: mustprogress nounwind uwtable
define linkonce_odr hidden noundef i32 @_ZN2os30initial_active_processor_countEv() #1 comdat align 2 {
  %1 = load i32, ptr @_ZN2os31_initial_active_processor_countE, align 4
  ret i32 %1
}

; Function Attrs: mustprogress nounwind uwtable
define linkonce_odr hidden noundef ptr @_ZNK4DCmd6outputEv(ptr noundef nonnull align 8 dereferenceable(17) %0) #1 comdat align 2 {
  %2 = alloca ptr, align 8
  store ptr %0, ptr %2, align 8
  %3 = load ptr, ptr %2, align 8
  %4 = getelementptr inbounds %class.DCmd, ptr %3, i32 0, i32 1
  %5 = load ptr, ptr %4, align 8
  ret ptr %5
}

; Function Attrs: mustprogress nounwind uwtable
define linkonce_odr hidden noundef i64 @_ZNK12DCmdArgumentIlE5valueEv(ptr noundef nonnull align 8 dereferenceable(64) %0) #1 comdat align 2 {
  %2 = alloca ptr, align 8
  store ptr %0, ptr %2, align 8
  %3 = load ptr, ptr %2, align 8
  %4 = getelementptr inbounds %class.DCmdArgument.100, ptr %3, i32 0, i32 1
  %5 = load i64, ptr %4, align 8
  ret i64 %5
}

; Function Attrs: mustprogress nounwind uwtable
define hidden void @_ZN18ClassHistogramDCmd7executeE10DCmdSourceP10JavaThread(ptr noundef nonnull align 8 dereferenceable(160) %0, i32 noundef %1, ptr noundef %2) unnamed_addr #1 align 2 {
  %4 = alloca ptr, align 8
  %5 = alloca i32, align 4
  %6 = alloca ptr, align 8
  %7 = alloca i64, align 8
  %8 = alloca i32, align 4
  %9 = alloca %class.VM_GC_HeapInspection, align 8
  store ptr %0, ptr %4, align 8
  store i32 %1, ptr %5, align 4
  store ptr %2, ptr %6, align 8
  %10 = load ptr, ptr %4, align 8
  %11 = getelementptr inbounds %class.ClassHistogramDCmd, ptr %10, i32 0, i32 2
  %12 = call noundef i64 @_ZNK12DCmdArgumentIlE5valueEv(ptr noundef nonnull align 8 dereferenceable(64) %11)
  store i64 %12, ptr %7, align 8
  %13 = load i64, ptr %7, align 8
  %14 = icmp slt i64 %13, 0
  br i1 %14, label %15, label %18

15:                                               ; preds = %3
  %16 = call noundef ptr @_ZNK4DCmd6outputEv(ptr noundef nonnull align 8 dereferenceable(17) %10)
  %17 = load i64, ptr %7, align 8
  call void (ptr, ptr, ...) @_ZN12outputStream8print_crEPKcz(ptr noundef nonnull align 8 dereferenceable(56) %16, ptr noundef @.str.63, i64 noundef %17)
  br label %37

18:                                               ; preds = %3
  %19 = load i64, ptr %7, align 8
  %20 = icmp eq i64 %19, 0
  br i1 %20, label %21, label %27

21:                                               ; preds = %18
  %22 = call noundef i32 @_ZN2os30initial_active_processor_countEv()
  %23 = mul i32 %22, 3
  %24 = udiv i32 %23, 8
  %25 = call noundef i32 @_Z4MAX2IjET_S0_S0_(i32 noundef 1, i32 noundef %24)
  %26 = zext i32 %25 to i64
  br label %29

27:                                               ; preds = %18
  %28 = load i64, ptr %7, align 8
  br label %29

29:                                               ; preds = %27, %21
  %30 = phi i64 [ %26, %21 ], [ %28, %27 ]
  %31 = trunc i64 %30 to i32
  store i32 %31, ptr %8, align 4
  %32 = call noundef ptr @_ZNK4DCmd6outputEv(ptr noundef nonnull align 8 dereferenceable(17) %10)
  %33 = getelementptr inbounds %class.ClassHistogramDCmd, ptr %10, i32 0, i32 1
  %34 = call noundef zeroext i1 @_ZNK12DCmdArgumentIbE5valueEv(ptr noundef nonnull align 8 dereferenceable(52) %33)
  %35 = xor i1 %34, true
  %36 = load i32, ptr %8, align 4
  call void @_ZN20VM_GC_HeapInspectionC2EP12outputStreambj(ptr noundef nonnull align 8 dereferenceable(56) %9, ptr noundef %32, i1 noundef zeroext %35, i32 noundef %36)
  call void @_ZN8VMThread7executeEP12VM_Operation(ptr noundef %9)
  call void @_ZN20VM_GC_HeapInspectionD2Ev(ptr noundef nonnull align 8 dereferenceable(56) %9) #11
  br label %37

37:                                               ; preds = %29, %15
  ret void
}