; Function Attrs: mustprogress nounwind uwtable
define hidden void @_ZN18ClassHistogramDCmd7executeE10DCmdSourceP10JavaThread(ptr nocapture noundef nonnull readonly align 8 dereferenceable(160) %0, i32 %1, ptr nocapture readnone %2) unnamed_addr #0 align 2 {
  %4 = alloca %class.VM_GC_HeapInspection, align 8
  %5 = getelementptr inbounds i8, ptr %0, i64 152
  %6 = load i64, ptr %5, align 8
  %7 = icmp slt i64 %6, 0
  br i1 %7, label %8, label %11

8:                                                ; preds = %3
  %9 = getelementptr inbounds i8, ptr %0, i64 8
  %10 = load ptr, ptr %9, align 8
  tail call void (ptr, ptr, ...) @_ZN12outputStream8print_crEPKcz(ptr noundef nonnull align 8 dereferenceable(56) %10, ptr noundef nonnull @.str.63, i64 noundef %6) #17
  br label %38

11:                                               ; preds = %3
  %12 = icmp eq i64 %6, 0
  br i1 %12, label %13, label %18

13:                                               ; preds = %11
  %14 = load i32, ptr @_ZN2os31_initial_active_processor_countE, align 4
  %15 = mul i32 %14, 3
  %16 = lshr i32 %15, 3
  %17 = tail call noundef i32 @llvm.umax.i32(i32 %16, i32 1)
  br label %20

18:                                               ; preds = %11
  %19 = trunc i64 %6 to i32
  br label %20

20:                                               ; preds = %18, %13
  %21 = phi i32 [ %17, %13 ], [ %19, %18 ]
  %22 = getelementptr inbounds i8, ptr %0, i64 8
  %23 = load ptr, ptr %22, align 8
  %24 = getelementptr inbounds i8, ptr %0, i64 91
  %25 = load i8, ptr %24, align 1
  %26 = and i8 %25, 1
  %27 = xor i8 %26, 1
  %28 = getelementptr inbounds i8, ptr %4, i64 8
  store ptr null, ptr %28, align 8
  %29 = getelementptr inbounds i8, ptr %4, i64 24
  store i8 %27, ptr %29, align 8
  %30 = getelementptr inbounds i8, ptr %4, i64 25
  store i8 0, ptr %30, align 1
  %31 = getelementptr inbounds i8, ptr %4, i64 16
  store i32 0, ptr %31, align 8
  %32 = getelementptr inbounds i8, ptr %4, i64 28
  store i32 6, ptr %32, align 4
  %33 = getelementptr inbounds i8, ptr %4, i64 32
  store i8 0, ptr %33, align 8
  %34 = getelementptr inbounds i8, ptr %4, i64 20
  store i32 0, ptr %34, align 4
  store ptr getelementptr inbounds inrange(-16, 88) (i8, ptr @_ZTV20VM_GC_HeapInspection, i64 16), ptr %4, align 8
  %35 = getelementptr inbounds i8, ptr %4, i64 40
  store ptr %23, ptr %35, align 8
  %36 = getelementptr inbounds i8, ptr %4, i64 48
  store i8 %27, ptr %36, align 8
  %37 = getelementptr inbounds i8, ptr %4, i64 52
  store i32 %21, ptr %37, align 4
  call void @_ZN8VMThread7executeEP12VM_Operation(ptr noundef nonnull %4) #17
  call void @_ZN15VM_GC_OperationD2Ev(ptr noundef nonnull align 8 dereferenceable(33) %4) #17
  br label %38

38:                                               ; preds = %20, %8
  ret void
}